Certificate:
    Data:
        Version: 3 (0x2)
        Serial Number:
            03:37:6d:88:93:08:4d:03:72:05:a0:35:0f:60:13:3a
    Signature Algorithm: sha256WithRSAEncryption
        Issuer: CN=salt
        Validity
            Not Before: Oct 10 10:07:04 2018 GMT
            Not After : Oct  7 10:07:04 2028 GMT
        Subject: CN=gen-crl
        Subject Public Key Info:
            Public Key Algorithm: rsaEncryption
                Public-Key: (2048 bit)
                Modulus:
                    00:e3:85:62:1a:f8:34:96:14:36:3b:57:5d:fd:77:
                    e5:b2:7a:1d:f1:ca:99:35:e8:4d:57:f9:70:0d:f9:
                    ec:fe:2e:c4:28:f7:48:24:77:a0:54:db:3d:ec:e5:
                    bf:5e:9b:f6:93:de:b8:e5:be:30:7e:95:7e:93:88:
                    f7:24:6f:20:9f:b5:a4:39:19:f1:15:52:dc:de:4e:
                    15:b2:93:8f:ba:fd:c9:cf:de:34:93:b8:57:8a:3d:
                    f7:65:b2:23:69:35:fd:cf:84:00:c2:62:ae:be:d9:
                    e6:89:db:73:18:cc:a8:13:7a:9e:2a:4f:8b:98:d2:
                    dc:52:f3:a3:a1:3b:b1:6c:83:7b:89:7c:97:16:31:
                    93:0a:ae:8b:c8:79:1f:4a:01:58:ab:51:d5:74:f9:
                    65:df:d0:38:b0:48:03:91:17:49:7d:73:ff:5e:23:
                    9c:d3:10:37:37:f6:be:a9:1c:42:5e:05:32:09:0d:
                    7b:ae:e0:57:19:2c:26:84:1e:0a:aa:5f:51:bb:88:
                    20:88:9d:b4:63:53:fd:ef:8f:b0:a5:c6:28:4d:56:
                    a3:aa:58:c2:5b:35:eb:5f:59:f6:64:c3:e1:52:45:
                    0b:e1:92:37:4f:de:07:3b:15:bc:ad:23:6a:79:fa:
                    a4:87:49:0b:20:c8:38:08:c3:7b:87:43:73:be:5b:
                    ef:75
                Exponent: 65537 (0x10001)
        X509v3 extensions:
            X509v3 Basic Constraints: 
                CA:FALSE
            X509v3 Subject Key Identifier: 
                26:B9:1E:E3:2C:8A:30:B0:48:4B:C7:96:D5:10:F3:95:88:E2:D2:AA
            X509v3 Authority Key Identifier: 
                keyid:95:EE:CE:0F:E5:6E:04:EB:B1:21:08:C0:60:91:A0:05:3F:FC:0F:B4
                DirName:/CN=salt
                serial:91:B1:4E:A9:0A:C6:D0:E0

            X509v3 Extended Key Usage: 
                TLS Web Client Authentication
            X509v3 Key Usage: 
                Digital Signature
    Signature Algorithm: sha256WithRSAEncryption
         59:1b:b5:a3:8c:94:81:cd:33:06:78:1b:72:a7:7b:89:19:17:
         05:6f:00:d7:27:29:e8:df:d5:a8:84:a3:21:d3:b1:31:39:e5:
         e6:48:4b:d1:85:0a:b6:15:24:24:5d:28:92:09:91:4e:34:21:
         e3:91:c9:52:0d:c4:35:0c:ac:b8:2c:07:a2:f0:2f:b0:79:e1:
         75:77:63:ca:ee:48:d5:21:a8:b8:3c:67:33:de:46:54:70:c7:
         69:bc:81:1a:9a:35:c1:ba:e0:9a:47:35:8d:54:3c:a9:4e:6b:
         b1:42:f0:77:4d:37:78:55:20:be:b5:92:a7:aa:79:ed:2b:0c:
         a6:b7:21:d2:e5:c5:f6:1b:08:ee:1d:3e:e5:a9:bc:fc:61:7a:
         71:09:09:54:73:d8:db:06:d7:be:2f:db:c6:53:70:7c:c1:4a:
         a4:99:c6:26:71:ef:02:69:79:5c:7d:fe:ca:3a:b3:76:c4:ec:
         ca:f6:ce:eb:9c:55:a1:07:56:f6:d4:be:84:2e:5f:d3:ef:09:
         a7:69:5f:46:28:11:24:cb:c1:b7:cc:b1:0b:84:09:58:ad:31:
         8b:9a:af:3f:55:e6:b9:ce:3f:63:4f:83:6f:09:05:f8:0c:b5:
         bd:08:3e:02:42:90:d0:05:e5:69:65:4c:60:b0:b6:ad:26:da:
         2e:d0:8b:9f
-----BEGIN CERTIFICATE-----
MIIDPDCCAiSgAwIBAgIQAzdtiJMITQNyBaA1D2ATOjANBgkqhkiG9w0BAQsFADAP
MQ0wCwYDVQQDDARzYWx0MB4XDTE4MTAxMDEwMDcwNFoXDTI4MTAwNzEwMDcwNFow
EjEQMA4GA1UEAwwHZ2VuLWNybDCCASIwDQYJKoZIhvcNAQEBBQADggEPADCCAQoC
ggEBAOOFYhr4NJYUNjtXXf135bJ6HfHKmTXoTVf5cA357P4uxCj3SCR3oFTbPezl
v16b9pPeuOW+MH6VfpOI9yRvIJ+1pDkZ8RVS3N5OFbKTj7r9yc/eNJO4V4o992Wy
I2k1/c+EAMJirr7Z5onbcxjMqBN6nipPi5jS3FLzo6E7sWyDe4l8lxYxkwqui8h5
H0oBWKtR1XT5Zd/QOLBIA5EXSX1z/14jnNMQNzf2vqkcQl4FMgkNe67gVxksJoQe
CqpfUbuIIIidtGNT/e+PsKXGKE1Wo6pYwls1619Z9mTD4VJFC+GSN0/eBzsVvK0j
ann6pIdJCyDIOAjDe4dDc75b73UCAwEAAaOBkDCBjTAJBgNVHRMEAjAAMB0GA1Ud
DgQWBBQmuR7jLIowsEhLx5bVEPOViOLSqjA/BgNVHSMEODA2gBSV7s4P5W4E67Eh
CMBgkaAFP/wPtKETpBEwDzENMAsGA1UEAwwEc2FsdIIJAJGxTqkKxtDgMBMGA1Ud
JQQMMAoGCCsGAQUFBwMCMAsGA1UdDwQEAwIHgDANBgkqhkiG9w0BAQsFAAOCAQEA
WRu1o4yUgc0zBngbcqd7iRkXBW8A1ycp6N/VqISjIdOxMTnl5khL0YUKthUkJF0o
kgmRTjQh45HJUg3ENQysuCwHovAvsHnhdXdjyu5I1SGouDxnM95GVHDHabyBGpo1
wbrgmkc1jVQ8qU5rsULwd003eFUgvrWSp6p57SsMprch0uXF9hsI7h0+5am8/GF6
cQkJVHPY2wbXvi/bxlNwfMFKpJnGJnHvAml5XH3+yjqzdsTsyvbO65xVoQdW9tS+
hC5f0+8Jp2lfRigRJMvBt8yxC4QJWK0xi5qvP1Xmuc4/Y0+DbwkF+Ay1vQg+AkKQ
0AXlaWVMYLC2rSbaLtCLnw==
-----END CERTIFICATE-----
