Certificate:
    Data:
        Version: 3 (0x2)
        Serial Number:
            23:9e:6f:00:92:93:b7:ed:ad:cc:39:98:8d:04:53:a7
    Signature Algorithm: sha256WithRSAEncryption
        Issuer: CN=salt
        Validity
            Not Before: Oct 10 10:06:12 2018 GMT
            Not After : Oct  7 10:06:12 2028 GMT
        Subject: CN=vpn
        Subject Public Key Info:
            Public Key Algorithm: rsaEncryption
                Public-Key: (2048 bit)
                Modulus:
                    00:9f:5d:04:b7:45:2a:b9:59:f6:db:32:44:42:96:
                    b1:07:bd:20:d0:8b:97:39:5a:2b:52:06:1e:2f:21:
                    b3:73:75:92:3b:ed:d7:7f:98:eb:67:e6:03:36:8c:
                    7d:e5:24:f7:96:7d:66:29:af:fb:fb:e6:d5:b3:23:
                    df:07:08:ae:a9:44:10:45:6c:83:73:89:c2:0e:df:
                    99:ef:af:92:fb:e3:db:c5:94:92:36:68:1a:16:ef:
                    d0:45:dd:75:e5:d4:d9:05:93:d0:a1:18:69:f8:f4:
                    0f:9e:9f:0f:61:7f:dc:84:44:a3:2b:85:35:0b:b7:
                    e2:5f:9d:d3:34:1d:75:78:61:a1:5a:24:1c:a9:67:
                    9e:57:a5:b6:3f:02:0d:1e:a2:49:ae:50:b4:9d:b1:
                    ad:0a:24:95:18:1c:f0:bd:b4:e0:30:d9:61:98:9d:
                    e7:c4:cf:8a:80:8d:09:43:c9:45:dc:e4:95:e5:8b:
                    ff:4e:1b:4a:51:84:9a:da:74:97:59:9c:fb:08:a5:
                    ba:49:97:83:24:d3:a5:c5:5d:52:da:f2:e2:5a:f4:
                    fc:ca:d9:2d:35:8c:b2:4f:2a:a0:d9:6f:9a:6a:8a:
                    8e:b8:54:ff:58:ca:41:69:9b:7e:30:8d:d7:d0:27:
                    43:d3:be:20:cd:5e:0e:cd:db:2e:75:71:1b:14:06:
                    0d:57
                Exponent: 65537 (0x10001)
        X509v3 extensions:
            X509v3 Basic Constraints: 
                CA:FALSE
            X509v3 Subject Key Identifier: 
                09:EF:A8:1A:10:C4:41:0B:9E:A3:5C:E9:17:F2:03:3F:DE:F5:B3:EB
            X509v3 Authority Key Identifier: 
                keyid:95:EE:CE:0F:E5:6E:04:EB:B1:21:08:C0:60:91:A0:05:3F:FC:0F:B4
                DirName:/CN=salt
                serial:91:B1:4E:A9:0A:C6:D0:E0

            X509v3 Extended Key Usage: 
                TLS Web Server Authentication
            X509v3 Key Usage: 
                Digital Signature, Key Encipherment
            X509v3 Subject Alternative Name: 
                DNS:vpn
    Signature Algorithm: sha256WithRSAEncryption
         1f:f4:84:37:07:57:40:a1:15:9b:7e:68:f2:6c:b1:3f:dd:6a:
         24:90:7c:b0:5a:fd:e5:21:ed:6c:b5:a5:c5:e6:a5:ae:93:b1:
         72:ad:e1:b0:33:ee:6a:cf:4d:0d:66:a4:35:df:eb:c7:12:97:
         ff:66:73:13:3b:f8:e2:77:bf:8d:12:5d:30:68:06:2e:e3:5c:
         26:15:73:ae:d9:0c:d8:54:c8:3d:73:02:94:98:bc:7d:a9:54:
         3f:74:51:43:94:48:a4:21:a3:72:d4:f1:69:be:5f:8b:72:4b:
         45:69:12:2e:87:9e:ba:22:3a:7f:b3:6b:61:df:20:ac:79:cb:
         73:ed:0f:3d:8d:59:d4:53:7f:4e:37:4c:29:29:dc:10:3e:05:
         1e:3b:30:23:4e:fb:0f:60:6c:94:6f:a7:8b:7e:57:00:a6:ea:
         50:b1:78:a6:2d:3b:d6:1b:39:e0:f4:0e:05:94:dc:6c:9c:52:
         e3:e2:7d:b2:e6:73:e7:85:27:1b:27:40:68:6b:b0:e2:fd:e1:
         36:95:14:66:e5:f8:08:a3:ef:85:70:37:be:d5:23:1a:67:fc:
         c1:2d:67:3a:ed:d7:8d:43:3a:7d:fd:12:c8:ac:df:28:55:ca:
         88:70:9d:96:22:a5:a9:3a:df:7d:25:0e:44:a7:eb:9b:8d:ea:
         0a:a5:a3:81
-----BEGIN CERTIFICATE-----
MIIDSDCCAjCgAwIBAgIQI55vAJKTt+2tzDmYjQRTpzANBgkqhkiG9w0BAQsFADAP
MQ0wCwYDVQQDDARzYWx0MB4XDTE4MTAxMDEwMDYxMloXDTI4MTAwNzEwMDYxMlow
DjEMMAoGA1UEAwwDdnBuMIIBIjANBgkqhkiG9w0BAQEFAAOCAQ8AMIIBCgKCAQEA
n10Et0UquVn22zJEQpaxB70g0IuXOVorUgYeLyGzc3WSO+3Xf5jrZ+YDNox95ST3
ln1mKa/7++bVsyPfBwiuqUQQRWyDc4nCDt+Z76+S++PbxZSSNmgaFu/QRd115dTZ
BZPQoRhp+PQPnp8PYX/chESjK4U1C7fiX53TNB11eGGhWiQcqWeeV6W2PwINHqJJ
rlC0nbGtCiSVGBzwvbTgMNlhmJ3nxM+KgI0JQ8lF3OSV5Yv/ThtKUYSa2nSXWZz7
CKW6SZeDJNOlxV1S2vLiWvT8ytktNYyyTyqg2W+aaoqOuFT/WMpBaZt+MI3X0CdD
074gzV4OzdsudXEbFAYNVwIDAQABo4GgMIGdMAkGA1UdEwQCMAAwHQYDVR0OBBYE
FAnvqBoQxEELnqNc6RfyAz/e9bPrMD8GA1UdIwQ4MDaAFJXuzg/lbgTrsSEIwGCR
oAU//A+0oROkETAPMQ0wCwYDVQQDDARzYWx0ggkAkbFOqQrG0OAwEwYDVR0lBAww
CgYIKwYBBQUHAwEwCwYDVR0PBAQDAgWgMA4GA1UdEQQHMAWCA3ZwbjANBgkqhkiG
9w0BAQsFAAOCAQEAH/SENwdXQKEVm35o8myxP91qJJB8sFr95SHtbLWlxealrpOx
cq3hsDPuas9NDWakNd/rxxKX/2ZzEzv44ne/jRJdMGgGLuNcJhVzrtkM2FTIPXMC
lJi8falUP3RRQ5RIpCGjctTxab5fi3JLRWkSLoeeuiI6f7NrYd8grHnLc+0PPY1Z
1FN/TjdMKSncED4FHjswI077D2BslG+ni35XAKbqULF4pi071hs54PQOBZTcbJxS
4+J9suZz54UnGydAaGuw4v3hNpUUZuX4CKPvhXA3vtUjGmf8wS1nOu3XjUM6ff0S
yKzfKFXKiHCdliKlqTrffSUORKfrm43qCqWjgQ==
-----END CERTIFICATE-----
