Certificate:
    Data:
        Version: 3 (0x2)
        Serial Number:
            4d:cf:13:22:8e:d7:e1:03:77:09:73:34:d9:c7:a0:6e
    Signature Algorithm: sha256WithRSAEncryption
        Issuer: CN=salt
        Validity
            Not Before: Oct 10 10:06:38 2018 GMT
            Not After : Oct  7 10:06:38 2028 GMT
        Subject: CN=alienkiller
        Subject Public Key Info:
            Public Key Algorithm: rsaEncryption
                Public-Key: (2048 bit)
                Modulus:
                    00:c2:c3:43:96:ae:1d:47:ea:2e:fd:f4:e8:86:98:
                    d3:af:08:52:18:d5:a4:86:ac:52:7a:37:58:88:3f:
                    d4:81:05:e0:07:f9:99:2b:3d:8a:48:f3:59:7a:81:
                    6f:07:2b:76:8b:b5:b4:f3:55:e0:7b:ca:1b:c2:67:
                    7e:8c:d6:2f:a5:1e:5a:7b:0f:89:6b:26:f0:39:6c:
                    19:50:8a:de:f4:6e:77:3b:d9:79:16:b5:6c:45:87:
                    82:ed:c4:ad:bb:58:ef:36:3c:59:5e:eb:d2:cd:38:
                    4e:9d:9e:2f:ba:2c:86:99:be:29:df:59:a5:f0:61:
                    52:65:53:99:10:bb:c3:51:00:51:49:9c:3f:db:4c:
                    d6:c4:3d:a7:c2:5a:f1:e1:a8:6f:9e:cf:91:2d:0c:
                    5d:4d:45:d4:66:24:ee:f6:32:15:01:82:07:b9:d8:
                    14:8f:09:4d:08:6e:29:af:1b:d2:4c:01:db:c8:2a:
                    a3:99:61:61:05:3f:58:2a:3d:82:45:78:46:4f:c8:
                    37:fa:7b:f2:11:6c:0d:7a:f4:77:f8:af:7e:5c:7e:
                    3e:c2:a0:83:9b:5c:aa:15:8f:be:87:24:0c:45:f8:
                    52:7b:41:1a:fd:42:07:f5:52:ab:89:86:0c:cc:97:
                    6c:97:9f:cc:c0:16:c9:fa:a4:c9:d5:bc:a8:0b:a6:
                    7a:15
                Exponent: 65537 (0x10001)
        X509v3 extensions:
            X509v3 Basic Constraints: 
                CA:FALSE
            X509v3 Subject Key Identifier: 
                FD:FC:4B:76:18:AF:8F:B2:1B:87:EB:B6:16:6D:45:A3:B5:92:E2:7D
            X509v3 Authority Key Identifier: 
                keyid:95:EE:CE:0F:E5:6E:04:EB:B1:21:08:C0:60:91:A0:05:3F:FC:0F:B4
                DirName:/CN=salt
                serial:91:B1:4E:A9:0A:C6:D0:E0

            X509v3 Extended Key Usage: 
                TLS Web Client Authentication
            X509v3 Key Usage: 
                Digital Signature
    Signature Algorithm: sha256WithRSAEncryption
         ac:2a:2f:53:31:39:09:1a:e5:49:18:7f:41:fc:d3:95:aa:cf:
         a5:b5:be:65:f8:3a:4a:07:c5:7d:e9:9b:12:1d:a0:9b:0d:f5:
         8c:1d:d8:b2:09:80:ed:64:1b:a2:3c:10:87:4f:03:1c:e7:21:
         1a:b6:9e:72:9d:78:6f:9e:9a:19:16:03:da:82:d5:4e:3d:7e:
         0c:0a:ab:bf:b2:f9:5d:4a:5b:d8:52:4c:f2:9a:b6:be:f8:c5:
         42:16:59:ab:a5:f2:5c:9f:07:0f:88:e5:f9:d3:62:3d:3b:2c:
         1c:84:6c:7c:db:38:30:da:98:53:d0:12:20:90:d0:28:31:42:
         3d:bf:3f:ff:45:01:28:19:ac:15:69:53:87:07:63:e0:51:14:
         af:f5:94:a2:d9:ce:39:f5:fb:89:0b:e1:db:d1:00:e5:9e:c2:
         ab:4c:8a:8e:5b:76:25:f6:d3:bc:a8:8c:22:ec:5d:d8:e0:5b:
         b3:e6:d2:fe:e9:59:71:88:ac:de:5b:15:24:8a:be:e0:2a:06:
         c5:d4:28:aa:b6:7e:ce:0a:69:b8:a5:e9:b2:07:1b:0c:87:66:
         92:fb:74:2f:a8:42:23:b2:bf:58:b5:d9:2f:80:83:43:8a:5c:
         8c:75:3a:c8:cb:70:2c:64:f0:63:52:e4:a7:7b:19:e7:14:48:
         66:08:d3:df
-----BEGIN CERTIFICATE-----
MIIDQDCCAiigAwIBAgIQTc8TIo7X4QN3CXM02cegbjANBgkqhkiG9w0BAQsFADAP
MQ0wCwYDVQQDDARzYWx0MB4XDTE4MTAxMDEwMDYzOFoXDTI4MTAwNzEwMDYzOFow
FjEUMBIGA1UEAwwLYWxpZW5raWxsZXIwggEiMA0GCSqGSIb3DQEBAQUAA4IBDwAw
ggEKAoIBAQDCw0OWrh1H6i799OiGmNOvCFIY1aSGrFJ6N1iIP9SBBeAH+ZkrPYpI
81l6gW8HK3aLtbTzVeB7yhvCZ36M1i+lHlp7D4lrJvA5bBlQit70bnc72XkWtWxF
h4LtxK27WO82PFle69LNOE6dni+6LIaZvinfWaXwYVJlU5kQu8NRAFFJnD/bTNbE
PafCWvHhqG+ez5EtDF1NRdRmJO72MhUBgge52BSPCU0IbimvG9JMAdvIKqOZYWEF
P1gqPYJFeEZPyDf6e/IRbA169Hf4r35cfj7CoIObXKoVj76HJAxF+FJ7QRr9Qgf1
UquJhgzMl2yXn8zAFsn6pMnVvKgLpnoVAgMBAAGjgZAwgY0wCQYDVR0TBAIwADAd
BgNVHQ4EFgQU/fxLdhivj7Ibh+u2Fm1Fo7WS4n0wPwYDVR0jBDgwNoAUle7OD+Vu
BOuxIQjAYJGgBT/8D7ShE6QRMA8xDTALBgNVBAMMBHNhbHSCCQCRsU6pCsbQ4DAT
BgNVHSUEDDAKBggrBgEFBQcDAjALBgNVHQ8EBAMCB4AwDQYJKoZIhvcNAQELBQAD
ggEBAKwqL1MxOQka5UkYf0H805Wqz6W1vmX4OkoHxX3pmxIdoJsN9Ywd2LIJgO1k
G6I8EIdPAxznIRq2nnKdeG+emhkWA9qC1U49fgwKq7+y+V1KW9hSTPKatr74xUIW
Waul8lyfBw+I5fnTYj07LByEbHzbODDamFPQEiCQ0CgxQj2/P/9FASgZrBVpU4cH
Y+BRFK/1lKLZzjn1+4kL4dvRAOWewqtMio5bdiX207yojCLsXdjgW7Pm0v7pWXGI
rN5bFSSKvuAqBsXUKKq2fs4Kabil6bIHGwyHZpL7dC+oQiOyv1i12S+Ag0OKXIx1
OsjLcCxk8GNS5Kd7GecUSGYI098=
-----END CERTIFICATE-----
